target datalayout = "e-m:e-p270:32:32-p271:32:32-p272:64:64-i64:64-i128:128-f80:128-n8:16:32:64-S128"
target triple = "x86_64-pc-linux-gnu"

%struct.xorkey_st = type { [32 x i8], [32 x i8], i32, i32, ptr, %struct.CRYPTO_REF_COUNT }
%struct.CRYPTO_REF_COUNT = type { i32 }

; Function Attrs: nounwind uwtable
define internal i32 @xor_has(ptr noundef %0, i32 noundef %1) #0 {
  %3 = alloca ptr, align 8
  %4 = alloca i32, align 4
  %5 = alloca ptr, align 8
  %6 = alloca i32, align 4
  store ptr %0, ptr %3, align 8, !tbaa !13
  store i32 %1, ptr %4, align 4, !tbaa !27
  call void @llvm.lifetime.start.p0(i64 8, ptr %5) #8
  %7 = load ptr, ptr %3, align 8, !tbaa !13
  store ptr %7, ptr %5, align 8, !tbaa !41
  call void @llvm.lifetime.start.p0(i64 4, ptr %6) #8
  store i32 0, ptr %6, align 4, !tbaa !27
  %8 = load ptr, ptr %5, align 8, !tbaa !41
  %9 = icmp ne ptr %8, null
  br i1 %9, label %10, label %41

10:                                               ; preds = %2
  store i32 1, ptr %6, align 4, !tbaa !27
  %11 = load i32, ptr %4, align 4, !tbaa !27
  %12 = and i32 %11, 2
  %13 = icmp ne i32 %12, 0
  br i1 %13, label %14, label %25

14:                                               ; preds = %10
  %15 = load i32, ptr %6, align 4, !tbaa !27
  %16 = icmp ne i32 %15, 0
  br i1 %16, label %17, label %22

17:                                               ; preds = %14
  %18 = load ptr, ptr %5, align 8, !tbaa !41
  %19 = getelementptr inbounds nuw %struct.xorkey_st, ptr %18, i32 0, i32 3
  %20 = load i32, ptr %19, align 4, !tbaa !56
  %21 = icmp ne i32 %20, 0
  br label %22

22:                                               ; preds = %17, %14
  %23 = phi i1 [ false, %14 ], [ %21, %17 ]
  %24 = zext i1 %23 to i32
  store i32 %24, ptr %6, align 4, !tbaa !27
  br label %25

25:                                               ; preds = %22, %10
  %26 = load i32, ptr %4, align 4, !tbaa !27
  %27 = and i32 %26, 1
  %28 = icmp ne i32 %27, 0
  br i1 %28, label %29, label %40

29:                                               ; preds = %25
  %30 = load i32, ptr %6, align 4, !tbaa !27
  %31 = icmp ne i32 %30, 0
  br i1 %31, label %32, label %37

32:                                               ; preds = %29
  %33 = load ptr, ptr %5, align 8, !tbaa !41
  %34 = getelementptr inbounds nuw %struct.xorkey_st, ptr %33, i32 0, i32 2
  %35 = load i32, ptr %34, align 8, !tbaa !53
  %36 = icmp ne i32 %35, 0
  br label %37

37:                                               ; preds = %32, %29
  %38 = phi i1 [ false, %29 ], [ %36, %32 ]
  %39 = zext i1 %38 to i32
  store i32 %39, ptr %6, align 4, !tbaa !27
  br label %40

40:                                               ; preds = %37, %25
  br label %41

41:                                               ; preds = %40, %2
  %42 = load i32, ptr %6, align 4, !tbaa !27
  call void @llvm.lifetime.end.p0(i64 4, ptr %6) #8
  call void @llvm.lifetime.end.p0(i64 8, ptr %5) #8
  ret i32 %42
}