; Function Attrs: mustprogress nofree norecurse nosync nounwind willreturn memory(argmem: read) uwtable
define internal range(i32 0, 2) i32 @xor_has(ptr noundef readonly captures(address_is_null) %0, i32 noundef %1) #6 {
  %.not = icmp eq ptr %0, null
  br i1 %.not, label %14, label %3

3:                                                ; preds = %2
  %4 = and i32 %1, 2
  %.not9 = icmp eq i32 %4, 0
  br i1 %.not9, label %.thread, label %5

5:                                                ; preds = %3
  %6 = getelementptr inbounds nuw i8, ptr %0, i64 68
  %7 = load i32, ptr %6, align 4, !tbaa !43
  %8 = icmp ne i32 %7, 0
  %9 = and i32 %1, 1
  %.not10 = icmp eq i32 %9, 0
  %.not18 = xor i1 %8, true
  %brmerge = select i1 %.not10, i1 true, i1 %.not18
  %.mux = select i1 %.not10, i1 %8, i1 false
  br i1 %brmerge, label %14, label %.thread15

.thread:                                          ; preds = %3
  %10 = and i32 %1, 1
  %.not1013 = icmp eq i32 %10, 0
  br i1 %.not1013, label %14, label %.thread15

.thread15:                                        ; preds = %5, %.thread
  %11 = getelementptr inbounds nuw i8, ptr %0, i64 64
  %12 = load i32, ptr %11, align 8, !tbaa !41
  %13 = icmp ne i32 %12, 0
  br label %14

14:                                               ; preds = %5, %.thread, %.thread15, %2
  %.0.shrunk = phi i1 [ %.mux, %5 ], [ false, %2 ], [ %13, %.thread15 ], [ true, %.thread ]
  %.0 = zext i1 %.0.shrunk to i32
  ret i32 %.0
}